; ModuleID = '29/872.c'
source_filename = "29/872.c"
target datalayout = "e-m:e-p270:32:32-p271:32:32-p272:64:64-i64:64-f80:128-n8:16:32:64-S128"
target triple = "x86_64-pc-linux-gnu"

@.str = private unnamed_addr constant [3 x i8] c"%d\00", align 1
@.str.1 = private unnamed_addr constant [6 x i8] c"%.3f\0A\00", align 1

; Function Attrs: noinline nounwind uwtable
define dso_local i32 @main() #0 {
  %1 = alloca i32, align 4
  %2 = alloca [1000 x float], align 16
  %3 = alloca [1000 x float], align 16
  %4 = alloca i32, align 4
  %5 = alloca i32, align 4
  %6 = alloca i32, align 4
  %7 = alloca i32, align 4
  %8 = alloca float, align 4
  store i32 0, i32* %1, align 4
  store float 0.000000e+00, float* %8, align 4
  %9 = getelementptr inbounds [1000 x float], [1000 x float]* %2, i64 0, i64 1
  store float 1.000000e+00, float* %9, align 4
  %10 = getelementptr inbounds [1000 x float], [1000 x float]* %2, i64 0, i64 2
  store float 2.000000e+00, float* %10, align 8
  store i32 3, i32* %5, align 4
  br label %11

11:                                               ; preds = %29, %0
  %12 = load i32, i32* %5, align 4
  %13 = icmp slt i32 %12, 999
  br i1 %13, label %14, label %32

14:                                               ; preds = %11
  %15 = load i32, i32* %5, align 4
  %16 = sub nsw i32 %15, 1
  %17 = sext i32 %16 to i64
  %18 = getelementptr inbounds [1000 x float], [1000 x float]* %2, i64 0, i64 %17
  %19 = load float, float* %18, align 4
  %20 = load i32, i32* %5, align 4
  %21 = sub nsw i32 %20, 2
  %22 = sext i32 %21 to i64
  %23 = getelementptr inbounds [1000 x float], [1000 x float]* %2, i64 0, i64 %22
  %24 = load float, float* %23, align 4
  %25 = fadd float %19, %24
  %26 = load i32, i32* %5, align 4
  %27 = sext i32 %26 to i64
  %28 = getelementptr inbounds [1000 x float], [1000 x float]* %2, i64 0, i64 %27
  store float %25, float* %28, align 4
  br label %29

29:                                               ; preds = %14
  %30 = load i32, i32* %5, align 4
  %31 = add nsw i32 %30, 1
  store i32 %31, i32* %5, align 4
  br label %11

32:                                               ; preds = %11
  %33 = getelementptr inbounds [1000 x float], [1000 x float]* %3, i64 0, i64 1
  store float 2.000000e+00, float* %33, align 4
  store i32 2, i32* %5, align 4
  br label %34

34:                                               ; preds = %52, %32
  %35 = load i32, i32* %5, align 4
  %36 = icmp slt i32 %35, 1000
  br i1 %36, label %37, label %55

37:                                               ; preds = %34
  %38 = load i32, i32* %5, align 4
  %39 = sub nsw i32 %38, 1
  %40 = sext i32 %39 to i64
  %41 = getelementptr inbounds [1000 x float], [1000 x float]* %2, i64 0, i64 %40
  %42 = load float, float* %41, align 4
  %43 = load i32, i32* %5, align 4
  %44 = sext i32 %43 to i64
  %45 = getelementptr inbounds [1000 x float], [1000 x float]* %2, i64 0, i64 %44
  %46 = load float, float* %45, align 4
  %47 = fdiv float %42, %46
  %48 = fadd float %47, 1.000000e+00
  %49 = load i32, i32* %5, align 4
  %50 = sext i32 %49 to i64
  %51 = getelementptr inbounds [1000 x float], [1000 x float]* %3, i64 0, i64 %50
  store float %48, float* %51, align 4
  br label %52

52:                                               ; preds = %37
  %53 = load i32, i32* %5, align 4
  %54 = add nsw i32 %53, 1
  store i32 %54, i32* %5, align 4
  br label %34

55:                                               ; preds = %34
  %56 = call i32 (i8*, ...) @__isoc99_scanf(i8* getelementptr inbounds ([3 x i8], [3 x i8]* @.str, i64 0, i64 0), i32* %4)
  store i32 0, i32* %5, align 4
  br label %57

57:                                               ; preds = %81, %55
  %58 = load i32, i32* %5, align 4
  %59 = load i32, i32* %4, align 4
  %60 = icmp slt i32 %58, %59
  br i1 %60, label %61, label %84

61:                                               ; preds = %57
  %62 = call i32 (i8*, ...) @__isoc99_scanf(i8* getelementptr inbounds ([3 x i8], [3 x i8]* @.str, i64 0, i64 0), i32* %6)
  store i32 1, i32* %7, align 4
  br label %63

63:                                               ; preds = %74, %61
  %64 = load i32, i32* %7, align 4
  %65 = load i32, i32* %6, align 4
  %66 = icmp sle i32 %64, %65
  br i1 %66, label %67, label %77

67:                                               ; preds = %63
  %68 = load float, float* %8, align 4
  %69 = load i32, i32* %7, align 4
  %70 = sext i32 %69 to i64
  %71 = getelementptr inbounds [1000 x float], [1000 x float]* %3, i64 0, i64 %70
  %72 = load float, float* %71, align 4
  %73 = fadd float %68, %72
  store float %73, float* %8, align 4
  br label %74

74:                                               ; preds = %67
  %75 = load i32, i32* %7, align 4
  %76 = add nsw i32 %75, 1
  store i32 %76, i32* %7, align 4
  br label %63

77:                                               ; preds = %63
  %78 = load float, float* %8, align 4
  %79 = fpext float %78 to double
  %80 = call i32 (i8*, ...) @printf(i8* getelementptr inbounds ([6 x i8], [6 x i8]* @.str.1, i64 0, i64 0), double %79)
  store float 0.000000e+00, float* %8, align 4
  br label %81

81:                                               ; preds = %77
  %82 = load i32, i32* %5, align 4
  %83 = add nsw i32 %82, 1
  store i32 %83, i32* %5, align 4
  br label %57

84:                                               ; preds = %57
  ret i32 0
}

declare dso_local i32 @__isoc99_scanf(i8*, ...) #1

declare dso_local i32 @printf(i8*, ...) #1


!llvm.module.flags = !{!0}
!llvm.ident = !{!1}

!0 = !{i32 1, !"wchar_size", i32 4}
!1 = !{!"clang version 10.0.0-4ubuntu1 "}
